target datalayout = "e-m:e-p270:32:32-p271:32:32-p272:64:64-i64:64-i128:128-f80:128-n8:16:32:64-S128"
target triple = "x86_64-pc-linux-gnu"

%struct.pmix_proc = type { [256 x i8], i32 }
%struct.pmix_list_t = type { %struct.pmix_object_t, %struct.pmix_list_item_t, i64 }
%struct.pmix_object_t = type { %union.pthread_mutex_t, ptr, i32, %struct.pmix_tma }
%union.pthread_mutex_t = type { %struct.__pthread_mutex_s }
%struct.__pthread_mutex_s = type { i32, i32, i32, i32, i32, i16, i16, %struct.__pthread_internal_list }
%struct.__pthread_internal_list = type { ptr, ptr }
%struct.pmix_tma = type { ptr, ptr, ptr, ptr, ptr, ptr, ptr, ptr }
%struct.pmix_list_item_t = type { %struct.pmix_object_t, ptr, ptr, i32 }
%struct.pmix_class_t = type { ptr, ptr, ptr, ptr, i32, i32, ptr, ptr, i64 }
%struct.timeval = type { i64, i64 }
%struct.pmix_data_buffer = type { ptr, ptr, ptr, i64, i64 }
%struct.prte_plm_base_module_1_0_0_t = type { ptr, ptr, ptr, ptr, ptr, ptr, ptr, ptr, ptr }
%struct.prte_job_t = type { %struct.pmix_list_item_t, i32, ptr, ptr, [256 x i8], ptr, i32, i32, ptr, ptr, i32, i32, i32, i32, ptr, ptr, ptr, i32, i32, i32, i32, i32, i32, i32, %struct.pmix_proc, i32, i16, %struct.pmix_list_t, %struct.pmix_data_buffer, %struct.pmix_list_t, [256 x i8], i32, ptr, %struct.pmix_cli_result_t }
%struct.pmix_cli_result_t = type { %struct.pmix_object_t, %struct.pmix_list_t, ptr }
%struct.pmix_pointer_array_t = type { %struct.pmix_object_t, i32, i32, i32, i32, i32, ptr, ptr }
%struct.prte_timer_t = type { %struct.pmix_object_t, %struct.timeval, ptr, ptr }
%struct.prte_proc_t = type { %struct.pmix_list_item_t, %struct.pmix_proc, i32, i32, i16, i16, i32, i16, i32, i32, i32, i32, ptr, ptr, ptr, ptr, i16, %struct.pmix_list_t }

@.str.7 = private unnamed_addr constant [31 x i8] c"base/plm_base_launch_support.c\00", align 1
@.str.9 = private unnamed_addr constant [37 x i8] c"PRTE ERROR: %s in file %s at line %d\00", align 1
@pmix_class_init_epoch = external global i32, align 4
@.str.101 = private unnamed_addr constant [21 x i8] c"pthread_mutex_lock()\00", align 1
@pmix_pointer_array_t_class = external global %struct.pmix_class_t, align 8
@prte_plm = external global %struct.prte_plm_base_module_1_0_0_t, align 8

; Function Attrs: inlinehint nounwind uwtable
define internal void @pmix_obj_run_constructors(ptr noundef %0) #5 {
  %2 = alloca ptr, align 8
  %3 = alloca ptr, align 8
  store ptr %0, ptr %2, align 8, !tbaa !80
  call void @llvm.lifetime.start.p0(i64 8, ptr %3) #13
  %4 = load ptr, ptr %2, align 8, !tbaa !80
  %5 = getelementptr inbounds nuw %struct.pmix_object_t, ptr %4, i32 0, i32 1
  %6 = load ptr, ptr %5, align 8, !tbaa !85
  %7 = getelementptr inbounds nuw %struct.pmix_class_t, ptr %6, i32 0, i32 6
  %8 = load ptr, ptr %7, align 8, !tbaa !213
  store ptr %8, ptr %3, align 8, !tbaa !3
  br label %9

9:                                                ; preds = %13, %1
  %10 = load ptr, ptr %3, align 8, !tbaa !3
  %11 = load ptr, ptr %10, align 8, !tbaa !3
  %12 = icmp ne ptr null, %11
  br i1 %12, label %13, label %19

13:                                               ; preds = %9
  %14 = load ptr, ptr %3, align 8, !tbaa !3
  %15 = load ptr, ptr %14, align 8, !tbaa !3
  %16 = load ptr, ptr %2, align 8, !tbaa !80
  call void %15(ptr noundef %16)
  %17 = load ptr, ptr %3, align 8, !tbaa !3
  %18 = getelementptr inbounds nuw ptr, ptr %17, i32 1
  store ptr %18, ptr %3, align 8, !tbaa !3
  br label %9, !llvm.loop !214

19:                                               ; preds = %9
  call void @llvm.lifetime.end.p0(i64 8, ptr %3) #13
  ret void
}

; Function Attrs: inlinehint nounwind uwtable
define internal void @pmix_obj_construct_tma(ptr noundef %0, ptr noundef %1) #5 {
  %3 = alloca ptr, align 8
  %4 = alloca ptr, align 8
  store ptr %0, ptr %3, align 8, !tbaa !80
  store ptr %1, ptr %4, align 8, !tbaa !89
  %5 = load ptr, ptr %4, align 8, !tbaa !89
  %6 = icmp eq ptr null, %5
  br i1 %6, label %7, label %32

7:                                                ; preds = %2
  %8 = load ptr, ptr %3, align 8, !tbaa !80
  %9 = getelementptr inbounds nuw %struct.pmix_object_t, ptr %8, i32 0, i32 3
  %10 = getelementptr inbounds nuw %struct.pmix_tma, ptr %9, i32 0, i32 0
  store ptr null, ptr %10, align 8, !tbaa !109
  %11 = load ptr, ptr %3, align 8, !tbaa !80
  %12 = getelementptr inbounds nuw %struct.pmix_object_t, ptr %11, i32 0, i32 3
  %13 = getelementptr inbounds nuw %struct.pmix_tma, ptr %12, i32 0, i32 1
  store ptr null, ptr %13, align 8, !tbaa !110
  %14 = load ptr, ptr %3, align 8, !tbaa !80
  %15 = getelementptr inbounds nuw %struct.pmix_object_t, ptr %14, i32 0, i32 3
  %16 = getelementptr inbounds nuw %struct.pmix_tma, ptr %15, i32 0, i32 2
  store ptr null, ptr %16, align 8, !tbaa !111
  %17 = load ptr, ptr %3, align 8, !tbaa !80
  %18 = getelementptr inbounds nuw %struct.pmix_object_t, ptr %17, i32 0, i32 3
  %19 = getelementptr inbounds nuw %struct.pmix_tma, ptr %18, i32 0, i32 3
  store ptr null, ptr %19, align 8, !tbaa !112
  %20 = load ptr, ptr %3, align 8, !tbaa !80
  %21 = getelementptr inbounds nuw %struct.pmix_object_t, ptr %20, i32 0, i32 3
  %22 = getelementptr inbounds nuw %struct.pmix_tma, ptr %21, i32 0, i32 4
  store ptr null, ptr %22, align 8, !tbaa !212
  %23 = load ptr, ptr %3, align 8, !tbaa !80
  %24 = getelementptr inbounds nuw %struct.pmix_object_t, ptr %23, i32 0, i32 3
  %25 = getelementptr inbounds nuw %struct.pmix_tma, ptr %24, i32 0, i32 5
  store ptr null, ptr %25, align 8, !tbaa !82
  %26 = load ptr, ptr %3, align 8, !tbaa !80
  %27 = getelementptr inbounds nuw %struct.pmix_object_t, ptr %26, i32 0, i32 3
  %28 = getelementptr inbounds nuw %struct.pmix_tma, ptr %27, i32 0, i32 6
  store ptr null, ptr %28, align 8, !tbaa !113
  %29 = load ptr, ptr %3, align 8, !tbaa !80
  %30 = getelementptr inbounds nuw %struct.pmix_object_t, ptr %29, i32 0, i32 3
  %31 = getelementptr inbounds nuw %struct.pmix_tma, ptr %30, i32 0, i32 7
  store ptr null, ptr %31, align 8, !tbaa !114
  br label %36

32:                                               ; preds = %2
  %33 = load ptr, ptr %3, align 8, !tbaa !80
  %34 = getelementptr inbounds nuw %struct.pmix_object_t, ptr %33, i32 0, i32 3
  %35 = load ptr, ptr %4, align 8, !tbaa !89
  call void @llvm.memcpy.p0.p0.i64(ptr align 8 %34, ptr align 8 %35, i64 64, i1 false), !tbaa.struct !115
  br label %36

36:                                               ; preds = %32, %7
  ret void
}

; Function Attrs: inlinehint nounwind uwtable
define internal void @pmix_tma_free(ptr noundef %0, ptr noundef %1) #5 {
  %3 = alloca ptr, align 8
  %4 = alloca ptr, align 8
  store ptr %0, ptr %3, align 8, !tbaa !89
  store ptr %1, ptr %4, align 8, !tbaa !3
  %5 = load ptr, ptr %3, align 8, !tbaa !89
  %6 = icmp ne ptr null, %5
  br i1 %6, label %7, label %13

7:                                                ; preds = %2
  %8 = load ptr, ptr %3, align 8, !tbaa !89
  %9 = getelementptr inbounds nuw %struct.pmix_tma, ptr %8, i32 0, i32 5
  %10 = load ptr, ptr %9, align 8, !tbaa !91
  %11 = load ptr, ptr %3, align 8, !tbaa !89
  %12 = load ptr, ptr %4, align 8, !tbaa !3
  call void %10(ptr noundef %11, ptr noundef %12)
  br label %15

13:                                               ; preds = %2
  %14 = load ptr, ptr %4, align 8, !tbaa !3
  call void @free(ptr noundef %14) #13
  br label %15

15:                                               ; preds = %13, %7
  ret void
}

; Function Attrs: inlinehint nounwind uwtable
define internal void @pmix_obj_run_destructors(ptr noundef %0) #5 {
  %2 = alloca ptr, align 8
  %3 = alloca ptr, align 8
  store ptr %0, ptr %2, align 8, !tbaa !80
  call void @llvm.lifetime.start.p0(i64 8, ptr %3) #13
  %4 = load ptr, ptr %2, align 8, !tbaa !80
  %5 = getelementptr inbounds nuw %struct.pmix_object_t, ptr %4, i32 0, i32 1
  %6 = load ptr, ptr %5, align 8, !tbaa !85
  %7 = getelementptr inbounds nuw %struct.pmix_class_t, ptr %6, i32 0, i32 7
  %8 = load ptr, ptr %7, align 8, !tbaa !86
  store ptr %8, ptr %3, align 8, !tbaa !3
  br label %9

9:                                                ; preds = %13, %1
  %10 = load ptr, ptr %3, align 8, !tbaa !3
  %11 = load ptr, ptr %10, align 8, !tbaa !3
  %12 = icmp ne ptr null, %11
  br i1 %12, label %13, label %19

13:                                               ; preds = %9
  %14 = load ptr, ptr %3, align 8, !tbaa !3
  %15 = load ptr, ptr %14, align 8, !tbaa !3
  %16 = load ptr, ptr %2, align 8, !tbaa !80
  call void %15(ptr noundef %16)
  %17 = load ptr, ptr %3, align 8, !tbaa !3
  %18 = getelementptr inbounds nuw ptr, ptr %17, i32 1
  store ptr %18, ptr %3, align 8, !tbaa !3
  br label %9, !llvm.loop !88

19:                                               ; preds = %9
  call void @llvm.lifetime.end.p0(i64 8, ptr %3) #13
  ret void
}

; Function Attrs: alwaysinline nounwind uwtable
define internal i32 @pmix_obj_update(ptr noundef %0, i32 noundef %1) #6 {
  %3 = alloca ptr, align 8
  %4 = alloca i32, align 4
  %5 = alloca i32, align 4
  store ptr %0, ptr %3, align 8, !tbaa !80
  store i32 %1, ptr %4, align 4, !tbaa !29
  call void @llvm.lifetime.start.p0(i64 4, ptr %5) #13
  %6 = load ptr, ptr %3, align 8, !tbaa !80
  %7 = getelementptr inbounds nuw %struct.pmix_object_t, ptr %6, i32 0, i32 0
  %8 = call i32 @pthread_mutex_lock(ptr noundef %7) #13
  store i32 %8, ptr %5, align 4, !tbaa !29
  %9 = load i32, ptr %5, align 4, !tbaa !29
  %10 = icmp eq i32 %9, 35
  br i1 %10, label %11, label %14

11:                                               ; preds = %2
  %12 = load i32, ptr %5, align 4, !tbaa !29
  %13 = call ptr @__errno_location() #14
  store i32 %12, ptr %13, align 4, !tbaa !29
  call void @perror(ptr noundef @.str.101)
  call void @abort() #15
  unreachable

14:                                               ; preds = %2
  %15 = load i32, ptr %4, align 4, !tbaa !29
  %16 = load ptr, ptr %3, align 8, !tbaa !80
  %17 = getelementptr inbounds nuw %struct.pmix_object_t, ptr %16, i32 0, i32 2
  %18 = load i32, ptr %17, align 8, !tbaa !84
  %19 = add nsw i32 %18, %15
  store i32 %19, ptr %17, align 8, !tbaa !84
  store i32 %19, ptr %5, align 4, !tbaa !29
  %20 = load ptr, ptr %3, align 8, !tbaa !80
  %21 = getelementptr inbounds nuw %struct.pmix_object_t, ptr %20, i32 0, i32 0
  %22 = call i32 @pthread_mutex_unlock(ptr noundef %21) #13
  %23 = load i32, ptr %5, align 4, !tbaa !29
  call void @llvm.lifetime.end.p0(i64 4, ptr %5) #13
  ret i32 %23
}

; Function Attrs: nounwind uwtable
define internal void @stack_trace_timeout(i32 noundef %0, i16 noundef signext %1, ptr noundef %2) #0 {
  %4 = alloca i32, align 4
  %5 = alloca i16, align 2
  %6 = alloca ptr, align 8
  %7 = alloca ptr, align 8
  %8 = alloca ptr, align 8
  %9 = alloca %struct.prte_proc_t, align 8
  %10 = alloca %struct.pmix_pointer_array_t, align 8
  %11 = alloca i32, align 4
  %12 = alloca ptr, align 8
  store i32 %0, ptr %4, align 4, !tbaa !29
  store i16 %1, ptr %5, align 2, !tbaa !30
  store ptr %2, ptr %6, align 8, !tbaa !3
  call void @llvm.lifetime.start.p0(i64 8, ptr %7) #13
  call void @llvm.lifetime.start.p0(i64 8, ptr %8) #13
  %13 = load ptr, ptr %6, align 8, !tbaa !3
  store ptr %13, ptr %8, align 8, !tbaa !3
  call void @llvm.lifetime.start.p0(i64 752, ptr %9) #13
  call void @llvm.lifetime.start.p0(i64 160, ptr %10) #13
  call void @llvm.lifetime.start.p0(i64 4, ptr %11) #13
  store ptr null, ptr %7, align 8, !tbaa !3
  %14 = load ptr, ptr %8, align 8, !tbaa !3
  %15 = getelementptr inbounds nuw %struct.prte_job_t, ptr %14, i32 0, i32 27
  %16 = call zeroext i1 @prte_get_attribute(ptr noundef %15, i16 noundef zeroext 274, ptr noundef %7, i16 noundef zeroext 31)
  br i1 %16, label %17, label %49

17:                                               ; preds = %3
  %18 = load ptr, ptr %7, align 8, !tbaa !3
  %19 = icmp ne ptr null, %18
  br i1 %19, label %20, label %49

20:                                               ; preds = %17
  %21 = load ptr, ptr %7, align 8, !tbaa !3
  %22 = getelementptr inbounds nuw %struct.prte_timer_t, ptr %21, i32 0, i32 2
  %23 = load ptr, ptr %22, align 8, !tbaa !102
  %24 = call i32 @event_del(ptr noundef %23)
  br label %25

25:                                               ; preds = %20
  call void @llvm.lifetime.start.p0(i64 8, ptr %12) #13
  %26 = load ptr, ptr %7, align 8, !tbaa !3
  store ptr %26, ptr %12, align 8, !tbaa !80
  %27 = load ptr, ptr %12, align 8, !tbaa !80
  %28 = call i32 @pmix_obj_update(ptr noundef %27, i32 noundef -1)
  %29 = icmp eq i32 0, %28
  br i1 %29, label %30, label %44

30:                                               ; preds = %25
  %31 = load ptr, ptr %12, align 8, !tbaa !80
  call void @pmix_obj_run_destructors(ptr noundef %31)
  %32 = load ptr, ptr %12, align 8, !tbaa !80
  %33 = getelementptr inbounds nuw %struct.pmix_object_t, ptr %32, i32 0, i32 3
  %34 = getelementptr inbounds nuw %struct.pmix_tma, ptr %33, i32 0, i32 5
  %35 = load ptr, ptr %34, align 8, !tbaa !82
  %36 = icmp ne ptr null, %35
  br i1 %36, label %37, label %41

37:                                               ; preds = %30
  %38 = load ptr, ptr %12, align 8, !tbaa !80
  %39 = getelementptr inbounds nuw %struct.pmix_object_t, ptr %38, i32 0, i32 3
  %40 = load ptr, ptr %7, align 8, !tbaa !3
  call void @pmix_tma_free(ptr noundef %39, ptr noundef %40)
  br label %43

41:                                               ; preds = %30
  %42 = load ptr, ptr %7, align 8, !tbaa !3
  call void @free(ptr noundef %42) #13
  br label %43

43:                                               ; preds = %41, %37
  store ptr null, ptr %7, align 8, !tbaa !3
  br label %44

44:                                               ; preds = %43, %25
  call void @llvm.lifetime.end.p0(i64 8, ptr %12) #13
  br label %45

45:                                               ; preds = %44
  br label %46

46:                                               ; preds = %45
  %47 = load ptr, ptr %8, align 8, !tbaa !3
  %48 = getelementptr inbounds nuw %struct.prte_job_t, ptr %47, i32 0, i32 27
  call void @prte_remove_attribute(ptr noundef %48, i16 noundef zeroext 274)
  br label %49

49:                                               ; preds = %46, %17, %3
  br label %50

50:                                               ; preds = %49
  br label %51

51:                                               ; preds = %50
  br label %52

52:                                               ; preds = %51
  %53 = load i32, ptr @pmix_class_init_epoch, align 4, !tbaa !29
  %54 = load i32, ptr getelementptr inbounds nuw (%struct.pmix_class_t, ptr @pmix_pointer_array_t_class, i32 0, i32 4), align 8, !tbaa !108
  %55 = icmp ne i32 %53, %54
  br i1 %55, label %56, label %57

56:                                               ; preds = %52
  call void @pmix_class_initialize(ptr noundef @pmix_pointer_array_t_class)
  br label %57

57:                                               ; preds = %56, %52
  %58 = getelementptr inbounds nuw %struct.pmix_object_t, ptr %10, i32 0, i32 1
  store ptr @pmix_pointer_array_t_class, ptr %58, align 8, !tbaa !85
  %59 = getelementptr inbounds nuw %struct.pmix_object_t, ptr %10, i32 0, i32 2
  store i32 1, ptr %59, align 8, !tbaa !84
  call void @pmix_obj_construct_tma(ptr noundef %10, ptr noundef null)
  call void @pmix_obj_run_constructors(ptr noundef %10)
  br label %60

60:                                               ; preds = %57
  br label %61

61:                                               ; preds = %60
  br label %62

62:                                               ; preds = %61
  br label %63

63:                                               ; preds = %62
  br label %64

64:                                               ; preds = %63
  br label %65

65:                                               ; preds = %64
  %66 = getelementptr inbounds nuw %struct.prte_proc_t, ptr %9, i32 0, i32 1
  %67 = load ptr, ptr %8, align 8, !tbaa !3
  %68 = getelementptr inbounds nuw %struct.prte_job_t, ptr %67, i32 0, i32 4
  %69 = getelementptr inbounds [256 x i8], ptr %68, i64 0, i64 0
  call void @PMIx_Load_procid(ptr noundef %66, ptr noundef %69, i32 noundef -2)
  %70 = call i32 @pmix_pointer_array_add(ptr noundef %10, ptr noundef %9)
  %71 = load ptr, ptr getelementptr inbounds nuw (%struct.prte_plm_base_module_1_0_0_t, ptr @prte_plm, i32 0, i32 6), align 8, !tbaa !145
  %72 = call i32 %71(ptr noundef %10)
  store i32 %72, ptr %11, align 4, !tbaa !29
  %73 = icmp ne i32 0, %72
  br i1 %73, label %74, label %84

74:                                               ; preds = %65
  br label %75

75:                                               ; preds = %74
  %76 = load i32, ptr %11, align 4, !tbaa !29
  %77 = icmp ne i32 -43, %76
  br i1 %77, label %78, label %81

78:                                               ; preds = %75
  %79 = load i32, ptr %11, align 4, !tbaa !29
  %80 = call ptr @prte_strerror(i32 noundef %79)
  call void (i32, ptr, ...) @pmix_output(i32 noundef 0, ptr noundef @.str.9, ptr noundef %80, ptr noundef @.str.7, i32 noundef 476)
  br label %81

81:                                               ; preds = %78, %75
  br label %82

82:                                               ; preds = %81
  br label %83

83:                                               ; preds = %82
  br label %84

84:                                               ; preds = %83, %65
  br label %85

85:                                               ; preds = %84
  call void @pmix_obj_run_destructors(ptr noundef %10)
  br label %86

86:                                               ; preds = %85
  br label %87

87:                                               ; preds = %86
  call void @llvm.lifetime.end.p0(i64 4, ptr %11) #13
  call void @llvm.lifetime.end.p0(i64 160, ptr %10) #13
  call void @llvm.lifetime.end.p0(i64 752, ptr %9) #13
  call void @llvm.lifetime.end.p0(i64 8, ptr %8) #13
  call void @llvm.lifetime.end.p0(i64 8, ptr %7) #13
  ret void
}