; Function Attrs: nounwind uwtable
define internal void @stack_trace_timeout(i32 %0, i16 signext %1, ptr noundef %2) #0 {
  %4 = alloca ptr, align 8
  %5 = alloca %struct.prte_proc_t, align 8
  %6 = alloca %struct.pmix_pointer_array_t, align 8
  call void @llvm.lifetime.start.p0(i64 8, ptr nonnull %4) #17
  call void @llvm.lifetime.start.p0(i64 752, ptr nonnull %5) #17
  call void @llvm.lifetime.start.p0(i64 160, ptr nonnull %6) #17
  store ptr null, ptr %4, align 8, !tbaa !43
  %7 = getelementptr inbounds nuw i8, ptr %2, i64 792
  %8 = call zeroext i1 @prte_get_attribute(ptr noundef nonnull %7, i16 noundef zeroext 274, ptr noundef nonnull %4, i16 noundef zeroext 31) #17
  %9 = load ptr, ptr %4, align 8
  %10 = icmp ne ptr %9, null
  %or.cond = select i1 %8, i1 %10, i1 false
  br i1 %or.cond, label %11, label %43

11:                                               ; preds = %3
  %12 = getelementptr inbounds nuw i8, ptr %9, i64 136
  %13 = load ptr, ptr %12, align 8, !tbaa !100
  %14 = call i32 @event_del(ptr noundef %13) #17
  %15 = load ptr, ptr %4, align 8, !tbaa !43
  %16 = call i32 @pthread_mutex_lock(ptr noundef %15) #17
  %17 = icmp eq i32 %16, 35
  br i1 %17, label %18, label %pmix_obj_update.exit

18:                                               ; preds = %11
  %19 = tail call ptr @__errno_location() #18
  store i32 35, ptr %19, align 4, !tbaa !77
  call void @perror(ptr noundef nonnull @.str.101) #19
  call void @abort() #20
  unreachable

pmix_obj_update.exit:                             ; preds = %11
  %20 = getelementptr inbounds nuw i8, ptr %15, i64 48
  %21 = load i32, ptr %20, align 8, !tbaa !78
  %22 = add nsw i32 %21, -1
  store i32 %22, ptr %20, align 8, !tbaa !78
  %23 = call i32 @pthread_mutex_unlock(ptr noundef %15) #17
  %24 = icmp eq i32 %22, 0
  br i1 %24, label %25, label %42

25:                                               ; preds = %pmix_obj_update.exit
  %26 = getelementptr inbounds nuw i8, ptr %15, i64 40
  %27 = load ptr, ptr %26, align 8, !tbaa !79
  %28 = getelementptr inbounds nuw i8, ptr %27, i64 48
  %29 = load ptr, ptr %28, align 8, !tbaa !80
  %30 = load ptr, ptr %29, align 8, !tbaa !43
  %.not6.i = icmp eq ptr %30, null
  br i1 %.not6.i, label %pmix_obj_run_destructors.exit, label %.lr.ph.i

.lr.ph.i:                                         ; preds = %25, %.lr.ph.i
  %31 = phi ptr [ %33, %.lr.ph.i ], [ %30, %25 ]
  %.07.i = phi ptr [ %32, %.lr.ph.i ], [ %29, %25 ]
  call void %31(ptr noundef %15) #17
  %32 = getelementptr inbounds nuw i8, ptr %.07.i, i64 8
  %33 = load ptr, ptr %32, align 8, !tbaa !43
  %.not.i = icmp eq ptr %33, null
  br i1 %.not.i, label %pmix_obj_run_destructors.exit, label %.lr.ph.i, !llvm.loop !82

pmix_obj_run_destructors.exit:                    ; preds = %.lr.ph.i, %25
  %34 = getelementptr inbounds nuw i8, ptr %15, i64 96
  %35 = load ptr, ptr %34, align 8, !tbaa !83
  %.not = icmp eq ptr %35, null
  br i1 %.not, label %39, label %36

36:                                               ; preds = %pmix_obj_run_destructors.exit
  %37 = getelementptr inbounds nuw i8, ptr %15, i64 56
  %38 = load ptr, ptr %4, align 8, !tbaa !43
  call void %35(ptr noundef nonnull %37, ptr noundef %38) #17
  br label %41

39:                                               ; preds = %pmix_obj_run_destructors.exit
  %40 = load ptr, ptr %4, align 8, !tbaa !43
  call void @free(ptr noundef %40) #17
  br label %41

41:                                               ; preds = %39, %36
  store ptr null, ptr %4, align 8, !tbaa !43
  br label %42

42:                                               ; preds = %41, %pmix_obj_update.exit
  call void @prte_remove_attribute(ptr noundef nonnull %7, i16 noundef zeroext 274) #17
  br label %43

43:                                               ; preds = %3, %42
  %44 = load i32, ptr @pmix_class_init_epoch, align 4, !tbaa !77
  %45 = load i32, ptr getelementptr inbounds nuw (i8, ptr @pmix_pointer_array_t_class, i64 32), align 8, !tbaa !94
  %.not13 = icmp eq i32 %44, %45
  br i1 %.not13, label %47, label %46

46:                                               ; preds = %43
  call void @pmix_class_initialize(ptr noundef nonnull @pmix_pointer_array_t_class) #17
  br label %47

47:                                               ; preds = %46, %43
  %48 = getelementptr inbounds nuw i8, ptr %6, i64 40
  store ptr @pmix_pointer_array_t_class, ptr %48, align 8, !tbaa !79
  %49 = getelementptr inbounds nuw i8, ptr %6, i64 48
  store i32 1, ptr %49, align 8, !tbaa !78
  %50 = getelementptr inbounds nuw i8, ptr %6, i64 56
  call void @llvm.memset.p0.i64(ptr noundef nonnull align 8 dereferenceable(64) %50, i8 0, i64 64, i1 false)
  %51 = load ptr, ptr getelementptr inbounds nuw (i8, ptr @pmix_pointer_array_t_class, i64 40), align 8, !tbaa !95
  %52 = load ptr, ptr %51, align 8, !tbaa !43
  %.not6.i15 = icmp eq ptr %52, null
  br i1 %.not6.i15, label %pmix_obj_run_constructors.exit, label %.lr.ph.i16

.lr.ph.i16:                                       ; preds = %47, %.lr.ph.i16
  %53 = phi ptr [ %55, %.lr.ph.i16 ], [ %52, %47 ]
  %.07.i17 = phi ptr [ %54, %.lr.ph.i16 ], [ %51, %47 ]
  call void %53(ptr noundef nonnull %6) #17
  %54 = getelementptr inbounds nuw i8, ptr %.07.i17, i64 8
  %55 = load ptr, ptr %54, align 8, !tbaa !43
  %.not.i18 = icmp eq ptr %55, null
  br i1 %.not.i18, label %pmix_obj_run_constructors.exit, label %.lr.ph.i16, !llvm.loop !96

pmix_obj_run_constructors.exit:                   ; preds = %.lr.ph.i16, %47
  %56 = getelementptr inbounds nuw i8, ptr %5, i64 144
  %57 = getelementptr inbounds nuw i8, ptr %2, i64 168
  call void @PMIx_Load_procid(ptr noundef nonnull %56, ptr noundef nonnull %57, i32 noundef -2) #17
  %58 = call i32 @pmix_pointer_array_add(ptr noundef nonnull %6, ptr noundef nonnull %5) #17
  %59 = load ptr, ptr getelementptr inbounds nuw (i8, ptr @prte_plm, i64 48), align 8, !tbaa !132
  %60 = call i32 %59(ptr noundef nonnull %6) #17
  switch i32 %60, label %61 [
    i32 -43, label %63
    i32 0, label %63
  ]

61:                                               ; preds = %pmix_obj_run_constructors.exit
  %62 = call ptr @prte_strerror(i32 noundef %60) #17
  call void (i32, ptr, ...) @pmix_output(i32 noundef 0, ptr noundef nonnull @.str.9, ptr noundef %62, ptr noundef nonnull @.str.7, i32 noundef 476) #17
  br label %63

63:                                               ; preds = %pmix_obj_run_constructors.exit, %pmix_obj_run_constructors.exit, %61
  %64 = load ptr, ptr %48, align 8, !tbaa !79
  %65 = getelementptr inbounds nuw i8, ptr %64, i64 48
  %66 = load ptr, ptr %65, align 8, !tbaa !80
  %67 = load ptr, ptr %66, align 8, !tbaa !43
  %.not6.i19 = icmp eq ptr %67, null
  br i1 %.not6.i19, label %pmix_obj_run_destructors.exit23, label %.lr.ph.i20

.lr.ph.i20:                                       ; preds = %63, %.lr.ph.i20
  %68 = phi ptr [ %70, %.lr.ph.i20 ], [ %67, %63 ]
  %.07.i21 = phi ptr [ %69, %.lr.ph.i20 ], [ %66, %63 ]
  call void %68(ptr noundef nonnull %6) #17
  %69 = getelementptr inbounds nuw i8, ptr %.07.i21, i64 8
  %70 = load ptr, ptr %69, align 8, !tbaa !43
  %.not.i22 = icmp eq ptr %70, null
  br i1 %.not.i22, label %pmix_obj_run_destructors.exit23, label %.lr.ph.i20, !llvm.loop !82

pmix_obj_run_destructors.exit23:                  ; preds = %.lr.ph.i20, %63
  call void @llvm.lifetime.end.p0(i64 160, ptr nonnull %6) #17
  call void @llvm.lifetime.end.p0(i64 752, ptr nonnull %5) #17
  call void @llvm.lifetime.end.p0(i64 8, ptr nonnull %4) #17
  ret void
}